Certificate:
    Data:
        Version: 3 (0x2)
        Serial Number: 1 (0x1)
    Signature Algorithm: sha256WithRSAEncryption
        Issuer: DC=com, DC=example, O=Example Com Inc., OU=Example Com Inc. Root CA, CN=Example Com Inc. Root CA
        Validity
            Not Before: May 11 21:45:25 2019 GMT
            Not After : May 10 21:45:25 2029 GMT
        Subject: DC=com, DC=example, O=Example Com Inc., OU=Example Com Inc. Root CA, CN=Example Com Inc. Root CA
        Subject Public Key Info:
            Public Key Algorithm: rsaEncryption
                Public-Key: (2048 bit)
                Modulus:
                    00:cc:23:b1:66:37:be:a1:68:29:b1:a3:04:af:aa:
                    bd:45:d4:e6:92:63:ba:f5:8c:89:e3:c1:35:86:94:
                    16:3c:99:89:ed:96:8f:9c:92:d2:42:a8:f5:a1:ce:
                    b3:d9:47:1f:ab:d2:7b:80:53:5f:89:27:50:dc:1a:
                    95:71:e5:0c:90:11:db:a2:0a:d5:fd:e2:bc:fe:8b:
                    83:49:11:ef:ba:53:44:28:9f:9b:ea:11:54:43:f4:
                    03:55:e5:77:60:50:87:24:fe:c6:4b:3e:d8:db:67:
                    57:f1:2b:57:83:b3:5c:b7:51:fb:33:cd:b9:a1:26:
                    5a:95:62:fd:e7:75:d0:56:4d:fb:10:d4:1c:b9:f7:
                    bc:d1:63:02:52:58:67:2b:91:76:07:bc:8d:4f:e1:
                    9b:c4:20:83:4c:71:22:9d:12:d1:f7:c8:fd:66:e7:
                    f9:1f:fb:87:d8:5f:2c:08:a5:eb:66:66:54:43:22:
                    9c:78:2e:39:6f:c5:02:6e:a4:0c:87:dc:4f:7c:3d:
                    d7:e6:86:d0:57:cd:8a:f1:6c:b2:f4:36:69:e0:7c:
                    11:34:0a:f8:31:dc:7a:b7:f3:c0:32:b1:80:fb:0f:
                    dd:d6:f1:19:cc:d5:cd:f8:e6:a7:3e:48:a6:97:a9:
                    81:88:e0:7c:bb:4c:91:c7:f9:22:e5:21:ad:c8:67:
                    27:ed
                Exponent: 65537 (0x10001)
        X509v3 extensions:
            X509v3 Key Usage: critical
                Certificate Sign, CRL Sign
            X509v3 Basic Constraints: critical
                CA:TRUE
            X509v3 Subject Key Identifier: 
                45:84:3D:BC:EB:88:57:45:37:39:34:47:80:77:4D:08:A2:12:79:47
            X509v3 Authority Key Identifier: 
                keyid:45:84:3D:BC:EB:88:57:45:37:39:34:47:80:77:4D:08:A2:12:79:47

    Signature Algorithm: sha256WithRSAEncryption
         a8:f2:52:0b:38:9d:59:a9:91:32:1d:b0:c0:8b:70:15:97:77:
         32:58:08:aa:8f:c4:bc:61:74:55:c2:c1:2a:1e:f9:c2:ae:27:
         45:af:e9:c1:80:05:64:e4:56:d2:15:8f:22:2d:65:97:b9:1b:
         56:ce:2f:49:0c:27:37:47:49:29:4b:4b:f9:16:08:c8:98:bf:
         51:94:3f:61:a8:d7:51:9c:82:78:88:9e:28:49:8a:fd:24:1a:
         18:64:a6:62:54:40:9e:32:ad:c9:04:bf:3c:3c:8f:28:e7:82:
         34:68:e1:be:2b:d7:b7:70:1f:84:39:96:eb:56:56:38:3c:d4:
         a1:fb:be:56:56:aa:2c:4a:7b:fa:e5:8a:e9:40:8e:39:b0:73:
         49:03:00:01:36:82:e2:ca:6f:e2:c1:a5:b6:f2:34:d1:fe:8a:
         d2:29:04:45:49:c0:32:7d:a0:60:6b:75:0c:48:0c:3c:8b:35:
         df:ec:76:ed:0b:1e:e3:c7:4b:e1:29:5d:9b:30:ee:82:96:99:
         d5:f0:4f:b3:0e:55:0c:6b:12:98:5c:c9:57:af:67:00:c8:90:
         2d:e1:e6:d9:54:b9:41:ff:a9:f6:ea:90:27:27:12:ea:03:5a:
         31:cd:ed:2f:5a:d7:73:d9:25:28:31:0f:82:ef:94:37:50:62:
         5a:cd:97:9f
-----BEGIN CERTIFICATE-----
MIID/jCCAuagAwIBAgIBATANBgkqhkiG9w0BAQsFADCBjzETMBEGCgmSJomT8ixk
ARkWA2NvbTEXMBUGCgmSJomT8ixkARkWB2V4YW1wbGUxGTAXBgNVBAoMEEV4YW1w
bGUgQ29tIEluYy4xITAfBgNVBAsMGEV4YW1wbGUgQ29tIEluYy4gUm9vdCBDQTEh
MB8GA1UEAwwYRXhhbXBsZSBDb20gSW5jLiBSb290IENBMB4XDTE5MDUxMTIxNDUy
NVoXDTI5MDUxMDIxNDUyNVowgY8xEzARBgoJkiaJk/IsZAEZFgNjb20xFzAVBgoJ
kiaJk/IsZAEZFgdleGFtcGxlMRkwFwYDVQQKDBBFeGFtcGxlIENvbSBJbmMuMSEw
HwYDVQQLDBhFeGFtcGxlIENvbSBJbmMuIFJvb3QgQ0ExITAfBgNVBAMMGEV4YW1w
bGUgQ29tIEluYy4gUm9vdCBDQTCCASIwDQYJKoZIhvcNAQEBBQADggEPADCCAQoC
ggEBAMwjsWY3vqFoKbGjBK+qvUXU5pJjuvWMiePBNYaUFjyZie2Wj5yS0kKo9aHO
s9lHH6vSe4BTX4knUNwalXHlDJAR26IK1f3ivP6Lg0kR77pTRCifm+oRVEP0A1Xl
d2BQhyT+xks+2NtnV/ErV4OzXLdR+zPNuaEmWpVi/ed10FZN+xDUHLn3vNFjAlJY
ZyuRdge8jU/hm8Qgg0xxIp0S0ffI/Wbn+R/7h9hfLAil62ZmVEMinHguOW/FAm6k
DIfcT3w91+aG0FfNivFssvQ2aeB8ETQK+DHcerfzwDKxgPsP3dbxGczVzfjmpz5I
ppepgYjgfLtMkcf5IuUhrchnJ+0CAwEAAaNjMGEwDgYDVR0PAQH/BAQDAgEGMA8G
A1UdEwEB/wQFMAMBAf8wHQYDVR0OBBYEFEWEPbzriFdFNzk0R4B3TQiiEnlHMB8G
A1UdIwQYMBaAFEWEPbzriFdFNzk0R4B3TQiiEnlHMA0GCSqGSIb3DQEBCwUAA4IB
AQCo8lILOJ1ZqZEyHbDAi3AVl3cyWAiqj8S8YXRVwsEqHvnCridFr+nBgAVk5FbS
FY8iLWWXuRtWzi9JDCc3R0kpS0v5FgjImL9RlD9hqNdRnIJ4iJ4oSYr9JBoYZKZi
VECeMq3JBL88PI8o54I0aOG+K9e3cB+EOZbrVlY4PNSh+75WVqosSnv65YrpQI45
sHNJAwABNoLiym/iwaW28jTR/orSKQRFScAyfaBga3UMSAw8izXf7HbtCx7jx0vh
KV2bMO6ClpnV8E+zDlUMaxKYXMlXr2cAyJAt4ebZVLlB/6n26pAnJxLqA1oxze0v
Wtdz2SUoMQ+C75Q3UGJazZef
-----END CERTIFICATE-----
