Certificate:
    Data:
        Version: 3 (0x2)
        Serial Number: 1 (0x1)
    Signature Algorithm: sha256WithRSAEncryption
        Issuer: DC=com, DC=example, O=Example Com Inc., OU=Example Com Inc. Root CA, CN=Example Com Inc. Root CA
        Validity
            Not Before: May 10 17:40:21 2019 GMT
            Not After : May  9 17:40:21 2029 GMT
        Subject: DC=com, DC=example, O=Example Com Inc., OU=Example Com Inc. Root CA, CN=Example Com Inc. Root CA
        Subject Public Key Info:
            Public Key Algorithm: rsaEncryption
                Public-Key: (2048 bit)
                Modulus:
                    00:a7:a5:34:af:44:c9:05:34:b7:94:8c:c5:16:55:
                    05:a6:83:38:d5:a6:75:50:08:58:53:a6:dd:bf:10:
                    81:6a:32:d8:f2:2b:c6:02:cc:74:63:1f:20:8e:98:
                    e9:53:0f:f0:0d:dd:04:da:8a:4b:58:b9:b2:3b:dc:
                    e1:85:54:29:33:0f:7e:42:88:46:e8:43:30:50:18:
                    80:48:8a:8d:03:88:58:e2:dc:11:67:9d:7e:67:26:
                    e7:d9:0b:60:97:65:74:e1:8b:17:72:1e:b5:ab:5b:
                    e9:e6:d7:66:02:71:ec:b8:89:ba:03:ba:36:4a:a9:
                    8e:f9:1f:4a:ea:ae:4d:80:21:7c:e1:e1:73:02:29:
                    be:fb:92:07:f0:8d:28:98:35:e8:2b:e5:a3:b1:50:
                    db:b7:9d:91:b8:fd:cc:fd:af:6c:a0:b6:45:13:9d:
                    6e:c7:dc:c4:7d:f2:af:46:1b:0c:ba:1d:2c:9c:e0:
                    93:82:32:07:cd:c7:4b:46:dd:bb:e0:4e:74:8f:1f:
                    e9:17:42:8f:ae:ef:d0:bb:18:b4:72:9e:5d:e5:59:
                    46:c3:dd:ff:1b:c0:42:11:0d:ed:65:64:77:aa:8f:
                    fe:0e:85:39:ff:1b:ce:55:76:96:1a:3f:28:6b:dc:
                    e3:ac:52:37:14:d8:bf:7a:ad:cf:0e:91:9a:6d:9d:
                    a1:a5
                Exponent: 65537 (0x10001)
        X509v3 extensions:
            X509v3 Key Usage: critical
                Certificate Sign, CRL Sign
            X509v3 Basic Constraints: critical
                CA:TRUE
            X509v3 Subject Key Identifier: 
                32:81:06:09:46:09:C5:07:B1:7F:F3:41:08:93:0A:34:89:8D:5D:F5
            X509v3 Authority Key Identifier: 
                keyid:32:81:06:09:46:09:C5:07:B1:7F:F3:41:08:93:0A:34:89:8D:5D:F5

    Signature Algorithm: sha256WithRSAEncryption
         25:48:ea:ea:1b:8b:e6:c5:2f:97:43:75:c7:10:f7:f2:7e:9e:
         96:90:3a:04:c2:93:49:df:9e:b7:25:7d:3f:fc:00:c3:05:83:
         5c:bd:97:9f:6d:78:34:bf:b5:28:44:b3:2c:e2:38:d2:23:b4:
         9b:31:71:10:38:ff:91:27:01:81:b5:dd:cc:ce:ce:b0:15:a6:
         68:bf:b8:4e:a0:1e:a1:2c:09:35:16:2d:cf:f3:4c:6c:04:15:
         a2:f1:56:b9:b8:ba:13:bb:79:c6:25:6d:be:5e:de:7f:61:27:
         25:55:ac:de:b8:36:1b:1c:7e:a8:57:50:12:0e:91:be:fd:6f:
         92:17:ed:d9:9f:e6:bd:06:1f:f2:48:08:87:ab:4f:d8:04:5a:
         8c:50:85:77:d4:e9:c2:d4:ba:5a:69:da:22:99:d7:1d:4d:29:
         5d:2d:3e:82:16:03:29:5f:56:22:09:ee:1b:08:70:26:06:46:
         86:c8:22:24:fd:4b:23:2c:25:86:bb:17:2b:d0:34:9a:33:ce:
         cd:6a:68:00:b8:55:1f:b6:1a:54:f2:1c:81:20:bb:ef:da:62:
         2e:e0:e7:cf:cd:2a:44:62:28:a3:29:ae:26:ba:72:18:64:fa:
         51:e8:93:1f:bf:4a:de:a3:34:37:6a:6c:be:de:52:f8:6f:60:
         01:0e:cb:bf
-----BEGIN CERTIFICATE-----
MIID/jCCAuagAwIBAgIBATANBgkqhkiG9w0BAQsFADCBjzETMBEGCgmSJomT8ixk
ARkWA2NvbTEXMBUGCgmSJomT8ixkARkWB2V4YW1wbGUxGTAXBgNVBAoMEEV4YW1w
bGUgQ29tIEluYy4xITAfBgNVBAsMGEV4YW1wbGUgQ29tIEluYy4gUm9vdCBDQTEh
MB8GA1UEAwwYRXhhbXBsZSBDb20gSW5jLiBSb290IENBMB4XDTE5MDUxMDE3NDAy
MVoXDTI5MDUwOTE3NDAyMVowgY8xEzARBgoJkiaJk/IsZAEZFgNjb20xFzAVBgoJ
kiaJk/IsZAEZFgdleGFtcGxlMRkwFwYDVQQKDBBFeGFtcGxlIENvbSBJbmMuMSEw
HwYDVQQLDBhFeGFtcGxlIENvbSBJbmMuIFJvb3QgQ0ExITAfBgNVBAMMGEV4YW1w
bGUgQ29tIEluYy4gUm9vdCBDQTCCASIwDQYJKoZIhvcNAQEBBQADggEPADCCAQoC
ggEBAKelNK9EyQU0t5SMxRZVBaaDONWmdVAIWFOm3b8QgWoy2PIrxgLMdGMfII6Y
6VMP8A3dBNqKS1i5sjvc4YVUKTMPfkKIRuhDMFAYgEiKjQOIWOLcEWedfmcm59kL
YJdldOGLF3Ietatb6ebXZgJx7LiJugO6NkqpjvkfSuquTYAhfOHhcwIpvvuSB/CN
KJg16Cvlo7FQ27edkbj9zP2vbKC2RROdbsfcxH3yr0YbDLodLJzgk4IyB83HS0bd
u+BOdI8f6RdCj67v0LsYtHKeXeVZRsPd/xvAQhEN7WVkd6qP/g6FOf8bzlV2lho/
KGvc46xSNxTYv3qtzw6Rmm2doaUCAwEAAaNjMGEwDgYDVR0PAQH/BAQDAgEGMA8G
A1UdEwEB/wQFMAMBAf8wHQYDVR0OBBYEFDKBBglGCcUHsX/zQQiTCjSJjV31MB8G
A1UdIwQYMBaAFDKBBglGCcUHsX/zQQiTCjSJjV31MA0GCSqGSIb3DQEBCwUAA4IB
AQAlSOrqG4vmxS+XQ3XHEPfyfp6WkDoEwpNJ3563JX0//ADDBYNcvZefbXg0v7Uo
RLMs4jjSI7SbMXEQOP+RJwGBtd3Mzs6wFaZov7hOoB6hLAk1Fi3P80xsBBWi8Va5
uLoTu3nGJW2+Xt5/YSclVazeuDYbHH6oV1ASDpG+/W+SF+3Zn+a9Bh/ySAiHq0/Y
BFqMUIV31OnC1LpaadoimdcdTSldLT6CFgMpX1YiCe4bCHAmBkaGyCIk/UsjLCWG
uxcr0DSaM87NamgAuFUfthpU8hyBILvv2mIu4OfPzSpEYiijKa4munIYZPpR6JMf
v0reozQ3amy+3lL4b2ABDsu/
-----END CERTIFICATE-----
